target datalayout = "e-m:e-p270:32:32-p271:32:32-p272:64:64-i64:64-i128:128-f80:128-n8:16:32:64-S128"
target triple = "x86_64-pc-linux-gnu"

%struct._generic_N_Vector = type { ptr, ptr, ptr }
%struct._N_VectorContent_SensWrapper = type { ptr, i32, i32 }

; Function Attrs: nounwind uwtable
define void @N_VLinearSum_SensWrapper(double noundef %0, ptr noundef %1, double noundef %2, ptr noundef %3, ptr noundef %4) #0 {
  %6 = alloca double, align 8
  %7 = alloca ptr, align 8
  %8 = alloca double, align 8
  %9 = alloca ptr, align 8
  %10 = alloca ptr, align 8
  %11 = alloca i32, align 4
  store double %0, ptr %6, align 8, !tbaa !61
  store ptr %1, ptr %7, align 8, !tbaa !10
  store double %2, ptr %8, align 8, !tbaa !61
  store ptr %3, ptr %9, align 8, !tbaa !10
  store ptr %4, ptr %10, align 8, !tbaa !10
  call void @llvm.lifetime.start.p0(i64 4, ptr %11) #5
  store i32 0, ptr %11, align 4, !tbaa !3
  br label %12

12:                                               ; preds = %50, %5
  %13 = load i32, ptr %11, align 4, !tbaa !3
  %14 = load ptr, ptr %7, align 8, !tbaa !10
  %15 = getelementptr inbounds nuw %struct._generic_N_Vector, ptr %14, i32 0, i32 0
  %16 = load ptr, ptr %15, align 8, !tbaa !45
  %17 = getelementptr inbounds nuw %struct._N_VectorContent_SensWrapper, ptr %16, i32 0, i32 1
  %18 = load i32, ptr %17, align 8, !tbaa !40
  %19 = icmp slt i32 %13, %18
  br i1 %19, label %20, label %53

20:                                               ; preds = %12
  %21 = load double, ptr %6, align 8, !tbaa !61
  %22 = load ptr, ptr %7, align 8, !tbaa !10
  %23 = getelementptr inbounds nuw %struct._generic_N_Vector, ptr %22, i32 0, i32 0
  %24 = load ptr, ptr %23, align 8, !tbaa !45
  %25 = getelementptr inbounds nuw %struct._N_VectorContent_SensWrapper, ptr %24, i32 0, i32 0
  %26 = load ptr, ptr %25, align 8, !tbaa !44
  %27 = load i32, ptr %11, align 4, !tbaa !3
  %28 = sext i32 %27 to i64
  %29 = getelementptr inbounds ptr, ptr %26, i64 %28
  %30 = load ptr, ptr %29, align 8, !tbaa !10
  %31 = load double, ptr %8, align 8, !tbaa !61
  %32 = load ptr, ptr %9, align 8, !tbaa !10
  %33 = getelementptr inbounds nuw %struct._generic_N_Vector, ptr %32, i32 0, i32 0
  %34 = load ptr, ptr %33, align 8, !tbaa !45
  %35 = getelementptr inbounds nuw %struct._N_VectorContent_SensWrapper, ptr %34, i32 0, i32 0
  %36 = load ptr, ptr %35, align 8, !tbaa !44
  %37 = load i32, ptr %11, align 4, !tbaa !3
  %38 = sext i32 %37 to i64
  %39 = getelementptr inbounds ptr, ptr %36, i64 %38
  %40 = load ptr, ptr %39, align 8, !tbaa !10
  %41 = load ptr, ptr %10, align 8, !tbaa !10
  %42 = getelementptr inbounds nuw %struct._generic_N_Vector, ptr %41, i32 0, i32 0
  %43 = load ptr, ptr %42, align 8, !tbaa !45
  %44 = getelementptr inbounds nuw %struct._N_VectorContent_SensWrapper, ptr %43, i32 0, i32 0
  %45 = load ptr, ptr %44, align 8, !tbaa !44
  %46 = load i32, ptr %11, align 4, !tbaa !3
  %47 = sext i32 %46 to i64
  %48 = getelementptr inbounds ptr, ptr %45, i64 %47
  %49 = load ptr, ptr %48, align 8, !tbaa !10
  call void @N_VLinearSum(double noundef %21, ptr noundef %30, double noundef %31, ptr noundef %40, ptr noundef %49)
  br label %50

50:                                               ; preds = %20
  %51 = load i32, ptr %11, align 4, !tbaa !3
  %52 = add nsw i32 %51, 1
  store i32 %52, ptr %11, align 4, !tbaa !3
  br label %12

53:                                               ; preds = %12
  call void @llvm.lifetime.end.p0(i64 4, ptr %11) #5
  ret void
}